target datalayout = "e-m:e-p270:32:32-p271:32:32-p272:64:64-i64:64-i128:128-f80:128-n8:16:32:64-S128"
target triple = "x86_64-pc-linux-gnu"

%struct.ident_split = type { ptr, ptr, ptr, ptr, ptr, ptr, ptr, ptr }

; Function Attrs: nounwind uwtable
define internal i32 @buf_cmp(ptr noundef %0, ptr noundef %1, ptr noundef %2, ptr noundef %3) #0 {
  %5 = alloca i32, align 4
  %6 = alloca ptr, align 8
  %7 = alloca ptr, align 8
  %8 = alloca ptr, align 8
  %9 = alloca ptr, align 8
  %10 = alloca i32, align 4
  %11 = alloca i32, align 4
  %12 = alloca i32, align 4
  %13 = alloca i32, align 4
  %14 = alloca i32, align 4
  store ptr %0, ptr %6, align 8, !tbaa !20
  store ptr %1, ptr %7, align 8, !tbaa !20
  store ptr %2, ptr %8, align 8, !tbaa !20
  store ptr %3, ptr %9, align 8, !tbaa !20
  call void @llvm.lifetime.start.p0(i64 4, ptr %10) #10
  %15 = load ptr, ptr %7, align 8, !tbaa !20
  %16 = load ptr, ptr %6, align 8, !tbaa !20
  %17 = ptrtoint ptr %15 to i64
  %18 = ptrtoint ptr %16 to i64
  %19 = sub i64 %17, %18
  %20 = trunc i64 %19 to i32
  store i32 %20, ptr %10, align 4, !tbaa !4
  call void @llvm.lifetime.start.p0(i64 4, ptr %11) #10
  %21 = load ptr, ptr %9, align 8, !tbaa !20
  %22 = load ptr, ptr %8, align 8, !tbaa !20
  %23 = ptrtoint ptr %21 to i64
  %24 = ptrtoint ptr %22 to i64
  %25 = sub i64 %23, %24
  %26 = trunc i64 %25 to i32
  store i32 %26, ptr %11, align 4, !tbaa !4
  call void @llvm.lifetime.start.p0(i64 4, ptr %12) #10
  %27 = load i32, ptr %10, align 4, !tbaa !4
  %28 = load i32, ptr %11, align 4, !tbaa !4
  %29 = icmp slt i32 %27, %28
  br i1 %29, label %30, label %32

30:                                               ; preds = %4
  %31 = load i32, ptr %10, align 4, !tbaa !4
  br label %34

32:                                               ; preds = %4
  %33 = load i32, ptr %11, align 4, !tbaa !4
  br label %34

34:                                               ; preds = %32, %30
  %35 = phi i32 [ %31, %30 ], [ %33, %32 ]
  store i32 %35, ptr %12, align 4, !tbaa !4
  call void @llvm.lifetime.start.p0(i64 4, ptr %13) #10
  %36 = load ptr, ptr %6, align 8, !tbaa !20
  %37 = load ptr, ptr %8, align 8, !tbaa !20
  %38 = load i32, ptr %12, align 4, !tbaa !4
  %39 = sext i32 %38 to i64
  %40 = call i32 @memcmp(ptr noundef %36, ptr noundef %37, i64 noundef %39) #12
  store i32 %40, ptr %13, align 4, !tbaa !4
  %41 = load i32, ptr %13, align 4, !tbaa !4
  %42 = icmp ne i32 %41, 0
  br i1 %42, label %43, label %45

43:                                               ; preds = %34
  %44 = load i32, ptr %13, align 4, !tbaa !4
  store i32 %44, ptr %5, align 4
  store i32 1, ptr %14, align 4
  br label %49

45:                                               ; preds = %34
  %46 = load i32, ptr %10, align 4, !tbaa !4
  %47 = load i32, ptr %11, align 4, !tbaa !4
  %48 = sub nsw i32 %46, %47
  store i32 %48, ptr %5, align 4
  store i32 1, ptr %14, align 4
  br label %49

49:                                               ; preds = %45, %43
  call void @llvm.lifetime.end.p0(i64 4, ptr %13) #10
  call void @llvm.lifetime.end.p0(i64 4, ptr %12) #10
  call void @llvm.lifetime.end.p0(i64 4, ptr %11) #10
  call void @llvm.lifetime.end.p0(i64 4, ptr %10) #10
  %50 = load i32, ptr %5, align 4
  ret i32 %50
}

; Function Attrs: nounwind uwtable
define dso_local i32 @ident_cmp(ptr noundef %0, ptr noundef %1) #0 {
  %3 = alloca i32, align 4
  %4 = alloca ptr, align 8
  %5 = alloca ptr, align 8
  %6 = alloca i32, align 4
  %7 = alloca i32, align 4
  store ptr %0, ptr %4, align 8, !tbaa !29
  store ptr %1, ptr %5, align 8, !tbaa !29
  call void @llvm.lifetime.start.p0(i64 4, ptr %6) #10
  %8 = load ptr, ptr %4, align 8, !tbaa !29
  %9 = getelementptr inbounds nuw %struct.ident_split, ptr %8, i32 0, i32 2
  %10 = load ptr, ptr %9, align 8, !tbaa !33
  %11 = load ptr, ptr %4, align 8, !tbaa !29
  %12 = getelementptr inbounds nuw %struct.ident_split, ptr %11, i32 0, i32 3
  %13 = load ptr, ptr %12, align 8, !tbaa !37
  %14 = load ptr, ptr %5, align 8, !tbaa !29
  %15 = getelementptr inbounds nuw %struct.ident_split, ptr %14, i32 0, i32 2
  %16 = load ptr, ptr %15, align 8, !tbaa !33
  %17 = load ptr, ptr %5, align 8, !tbaa !29
  %18 = getelementptr inbounds nuw %struct.ident_split, ptr %17, i32 0, i32 3
  %19 = load ptr, ptr %18, align 8, !tbaa !37
  %20 = call i32 @buf_cmp(ptr noundef %10, ptr noundef %13, ptr noundef %16, ptr noundef %19)
  store i32 %20, ptr %6, align 4, !tbaa !4
  %21 = load i32, ptr %6, align 4, !tbaa !4
  %22 = icmp ne i32 %21, 0
  br i1 %22, label %23, label %25

23:                                               ; preds = %2
  %24 = load i32, ptr %6, align 4, !tbaa !4
  store i32 %24, ptr %3, align 4
  store i32 1, ptr %7, align 4
  br label %39

25:                                               ; preds = %2
  %26 = load ptr, ptr %4, align 8, !tbaa !29
  %27 = getelementptr inbounds nuw %struct.ident_split, ptr %26, i32 0, i32 0
  %28 = load ptr, ptr %27, align 8, !tbaa !31
  %29 = load ptr, ptr %4, align 8, !tbaa !29
  %30 = getelementptr inbounds nuw %struct.ident_split, ptr %29, i32 0, i32 1
  %31 = load ptr, ptr %30, align 8, !tbaa !35
  %32 = load ptr, ptr %5, align 8, !tbaa !29
  %33 = getelementptr inbounds nuw %struct.ident_split, ptr %32, i32 0, i32 0
  %34 = load ptr, ptr %33, align 8, !tbaa !31
  %35 = load ptr, ptr %5, align 8, !tbaa !29
  %36 = getelementptr inbounds nuw %struct.ident_split, ptr %35, i32 0, i32 1
  %37 = load ptr, ptr %36, align 8, !tbaa !35
  %38 = call i32 @buf_cmp(ptr noundef %28, ptr noundef %31, ptr noundef %34, ptr noundef %37)
  store i32 %38, ptr %3, align 4
  store i32 1, ptr %7, align 4
  br label %39

39:                                               ; preds = %25, %23
  call void @llvm.lifetime.end.p0(i64 4, ptr %6) #10
  %40 = load i32, ptr %3, align 4
  ret i32 %40
}