; Function Attrs: mustprogress nofree nounwind willreturn memory(read, inaccessiblemem: none) uwtable
define dso_local i32 @ident_cmp(ptr noundef readonly captures(none) %0, ptr noundef readonly captures(none) %1) local_unnamed_addr #12 {
  %3 = getelementptr inbounds nuw i8, ptr %0, i64 16
  %4 = load ptr, ptr %3, align 8, !tbaa !30
  %5 = getelementptr inbounds nuw i8, ptr %0, i64 24
  %6 = load ptr, ptr %5, align 8, !tbaa !34
  %7 = getelementptr inbounds nuw i8, ptr %1, i64 16
  %8 = load ptr, ptr %7, align 8, !tbaa !30
  %9 = getelementptr inbounds nuw i8, ptr %1, i64 24
  %10 = load ptr, ptr %9, align 8, !tbaa !34
  %11 = ptrtoint ptr %6 to i64
  %12 = ptrtoint ptr %4 to i64
  %13 = sub i64 %11, %12
  %14 = trunc i64 %13 to i32
  %15 = ptrtoint ptr %10 to i64
  %16 = ptrtoint ptr %8 to i64
  %17 = sub i64 %15, %16
  %18 = trunc i64 %17 to i32
  %19 = tail call i32 @llvm.smin.i32(i32 %14, i32 %18)
  %20 = sext i32 %19 to i64
  %21 = tail call i32 @memcmp(ptr noundef %4, ptr noundef %8, i64 noundef %20) #20
  %.not.i = icmp eq i32 %21, 0
  %22 = sub nsw i32 %14, %18
  %.0.i = select i1 %.not.i, i32 %22, i32 %21
  %.not = icmp eq i32 %.0.i, 0
  br i1 %.not, label %23, label %42

23:                                               ; preds = %2
  %24 = load ptr, ptr %0, align 8, !tbaa !27
  %25 = getelementptr inbounds nuw i8, ptr %0, i64 8
  %26 = load ptr, ptr %25, align 8, !tbaa !32
  %27 = load ptr, ptr %1, align 8, !tbaa !27
  %28 = getelementptr inbounds nuw i8, ptr %1, i64 8
  %29 = load ptr, ptr %28, align 8, !tbaa !32
  %30 = ptrtoint ptr %26 to i64
  %31 = ptrtoint ptr %24 to i64
  %32 = sub i64 %30, %31
  %33 = trunc i64 %32 to i32
  %34 = ptrtoint ptr %29 to i64
  %35 = ptrtoint ptr %27 to i64
  %36 = sub i64 %34, %35
  %37 = trunc i64 %36 to i32
  %38 = tail call i32 @llvm.smin.i32(i32 %33, i32 %37)
  %39 = sext i32 %38 to i64
  %40 = tail call i32 @memcmp(ptr noundef %24, ptr noundef %27, i64 noundef %39) #20
  %.not.i11 = icmp eq i32 %40, 0
  %41 = sub nsw i32 %33, %37
  %.0.i12 = select i1 %.not.i11, i32 %41, i32 %40
  br label %42

42:                                               ; preds = %2, %23
  %.0 = phi i32 [ %.0.i12, %23 ], [ %.0.i, %2 ]
  ret i32 %.0
}